; ModuleID = '27/2262.c'
source_filename = "27/2262.c"
target datalayout = "e-m:e-p270:32:32-p271:32:32-p272:64:64-i64:64-f80:128-n8:16:32:64-S128"
target triple = "x86_64-pc-linux-gnu"

@.str = private unnamed_addr constant [3 x i8] c"%d\00", align 1
@.str.1 = private unnamed_addr constant [12 x i8] c"%lf %lf %lf\00", align 1
@.str.2 = private unnamed_addr constant [13 x i8] c"x1=x2=%.5lf\0A\00", align 1
@.str.3 = private unnamed_addr constant [19 x i8] c"x1=%.5lf;x2=%.5lf\0A\00", align 1
@.str.4 = private unnamed_addr constant [33 x i8] c"x1=%.5lf+%.5lfi;x2=%.5lf-%.5lfi\0A\00", align 1

; Function Attrs: noinline nounwind uwtable
define dso_local i32 @main() #0 {
  %1 = alloca i32, align 4
  %2 = alloca i32, align 4
  %3 = alloca i32, align 4
  %4 = alloca [100 x double], align 16
  %5 = alloca [100 x double], align 16
  %6 = alloca [100 x double], align 16
  %7 = alloca [100 x double], align 16
  %8 = alloca [100 x double], align 16
  %9 = alloca [100 x double], align 16
  store i32 0, i32* %1, align 4
  %10 = call i32 (i8*, ...) @__isoc99_scanf(i8* getelementptr inbounds ([3 x i8], [3 x i8]* @.str, i64 0, i64 0), i32* %3)
  store i32 0, i32* %2, align 4
  store i32 0, i32* %2, align 4
  br label %11

11:                                               ; preds = %26, %0
  %12 = load i32, i32* %2, align 4
  %13 = load i32, i32* %3, align 4
  %14 = icmp slt i32 %12, %13
  br i1 %14, label %15, label %29

15:                                               ; preds = %11
  %16 = load i32, i32* %2, align 4
  %17 = sext i32 %16 to i64
  %18 = getelementptr inbounds [100 x double], [100 x double]* %4, i64 0, i64 %17
  %19 = load i32, i32* %2, align 4
  %20 = sext i32 %19 to i64
  %21 = getelementptr inbounds [100 x double], [100 x double]* %5, i64 0, i64 %20
  %22 = load i32, i32* %2, align 4
  %23 = sext i32 %22 to i64
  %24 = getelementptr inbounds [100 x double], [100 x double]* %6, i64 0, i64 %23
  %25 = call i32 (i8*, ...) @__isoc99_scanf(i8* getelementptr inbounds ([12 x i8], [12 x i8]* @.str.1, i64 0, i64 0), double* %18, double* %21, double* %24)
  br label %26

26:                                               ; preds = %15
  %27 = load i32, i32* %2, align 4
  %28 = add nsw i32 %27, 1
  store i32 %28, i32* %2, align 4
  br label %11

29:                                               ; preds = %11
  store i32 0, i32* %2, align 4
  br label %30

30:                                               ; preds = %287, %29
  %31 = load i32, i32* %2, align 4
  %32 = load i32, i32* %3, align 4
  %33 = icmp slt i32 %31, %32
  br i1 %33, label %34, label %290

34:                                               ; preds = %30
  %35 = load i32, i32* %2, align 4
  %36 = sext i32 %35 to i64
  %37 = getelementptr inbounds [100 x double], [100 x double]* %5, i64 0, i64 %36
  %38 = load double, double* %37, align 8
  %39 = load i32, i32* %2, align 4
  %40 = sext i32 %39 to i64
  %41 = getelementptr inbounds [100 x double], [100 x double]* %5, i64 0, i64 %40
  %42 = load double, double* %41, align 8
  %43 = fmul double %38, %42
  %44 = load i32, i32* %2, align 4
  %45 = sext i32 %44 to i64
  %46 = getelementptr inbounds [100 x double], [100 x double]* %4, i64 0, i64 %45
  %47 = load double, double* %46, align 8
  %48 = fmul double 4.000000e+00, %47
  %49 = load i32, i32* %2, align 4
  %50 = sext i32 %49 to i64
  %51 = getelementptr inbounds [100 x double], [100 x double]* %6, i64 0, i64 %50
  %52 = load double, double* %51, align 8
  %53 = fmul double %48, %52
  %54 = fsub double %43, %53
  %55 = fcmp oge double %54, 0.000000e+00
  br i1 %55, label %56, label %155

56:                                               ; preds = %34
  %57 = load i32, i32* %2, align 4
  %58 = sext i32 %57 to i64
  %59 = getelementptr inbounds [100 x double], [100 x double]* %5, i64 0, i64 %58
  %60 = load double, double* %59, align 8
  %61 = fneg double %60
  %62 = load i32, i32* %2, align 4
  %63 = sext i32 %62 to i64
  %64 = getelementptr inbounds [100 x double], [100 x double]* %5, i64 0, i64 %63
  %65 = load double, double* %64, align 8
  %66 = load i32, i32* %2, align 4
  %67 = sext i32 %66 to i64
  %68 = getelementptr inbounds [100 x double], [100 x double]* %5, i64 0, i64 %67
  %69 = load double, double* %68, align 8
  %70 = fmul double %65, %69
  %71 = load i32, i32* %2, align 4
  %72 = sext i32 %71 to i64
  %73 = getelementptr inbounds [100 x double], [100 x double]* %4, i64 0, i64 %72
  %74 = load double, double* %73, align 8
  %75 = fmul double 4.000000e+00, %74
  %76 = load i32, i32* %2, align 4
  %77 = sext i32 %76 to i64
  %78 = getelementptr inbounds [100 x double], [100 x double]* %6, i64 0, i64 %77
  %79 = load double, double* %78, align 8
  %80 = fmul double %75, %79
  %81 = fsub double %70, %80
  %82 = call double @sqrt(double %81) #3
  %83 = fadd double %61, %82
  %84 = load i32, i32* %2, align 4
  %85 = sext i32 %84 to i64
  %86 = getelementptr inbounds [100 x double], [100 x double]* %4, i64 0, i64 %85
  %87 = load double, double* %86, align 8
  %88 = fmul double 2.000000e+00, %87
  %89 = fdiv double %83, %88
  %90 = load i32, i32* %2, align 4
  %91 = sext i32 %90 to i64
  %92 = getelementptr inbounds [100 x double], [100 x double]* %8, i64 0, i64 %91
  store double %89, double* %92, align 8
  %93 = load i32, i32* %2, align 4
  %94 = sext i32 %93 to i64
  %95 = getelementptr inbounds [100 x double], [100 x double]* %5, i64 0, i64 %94
  %96 = load double, double* %95, align 8
  %97 = fneg double %96
  %98 = load i32, i32* %2, align 4
  %99 = sext i32 %98 to i64
  %100 = getelementptr inbounds [100 x double], [100 x double]* %5, i64 0, i64 %99
  %101 = load double, double* %100, align 8
  %102 = load i32, i32* %2, align 4
  %103 = sext i32 %102 to i64
  %104 = getelementptr inbounds [100 x double], [100 x double]* %5, i64 0, i64 %103
  %105 = load double, double* %104, align 8
  %106 = fmul double %101, %105
  %107 = load i32, i32* %2, align 4
  %108 = sext i32 %107 to i64
  %109 = getelementptr inbounds [100 x double], [100 x double]* %4, i64 0, i64 %108
  %110 = load double, double* %109, align 8
  %111 = fmul double 4.000000e+00, %110
  %112 = load i32, i32* %2, align 4
  %113 = sext i32 %112 to i64
  %114 = getelementptr inbounds [100 x double], [100 x double]* %6, i64 0, i64 %113
  %115 = load double, double* %114, align 8
  %116 = fmul double %111, %115
  %117 = fsub double %106, %116
  %118 = call double @sqrt(double %117) #3
  %119 = fsub double %97, %118
  %120 = load i32, i32* %2, align 4
  %121 = sext i32 %120 to i64
  %122 = getelementptr inbounds [100 x double], [100 x double]* %4, i64 0, i64 %121
  %123 = load double, double* %122, align 8
  %124 = fmul double 2.000000e+00, %123
  %125 = fdiv double %119, %124
  %126 = load i32, i32* %2, align 4
  %127 = sext i32 %126 to i64
  %128 = getelementptr inbounds [100 x double], [100 x double]* %9, i64 0, i64 %127
  store double %125, double* %128, align 8
  %129 = load i32, i32* %2, align 4
  %130 = sext i32 %129 to i64
  %131 = getelementptr inbounds [100 x double], [100 x double]* %8, i64 0, i64 %130
  %132 = load double, double* %131, align 8
  %133 = load i32, i32* %2, align 4
  %134 = sext i32 %133 to i64
  %135 = getelementptr inbounds [100 x double], [100 x double]* %9, i64 0, i64 %134
  %136 = load double, double* %135, align 8
  %137 = fcmp oeq double %132, %136
  br i1 %137, label %138, label %144

138:                                              ; preds = %56
  %139 = load i32, i32* %2, align 4
  %140 = sext i32 %139 to i64
  %141 = getelementptr inbounds [100 x double], [100 x double]* %8, i64 0, i64 %140
  %142 = load double, double* %141, align 8
  %143 = call i32 (i8*, ...) @printf(i8* getelementptr inbounds ([13 x i8], [13 x i8]* @.str.2, i64 0, i64 0), double %142)
  br label %154

144:                                              ; preds = %56
  %145 = load i32, i32* %2, align 4
  %146 = sext i32 %145 to i64
  %147 = getelementptr inbounds [100 x double], [100 x double]* %8, i64 0, i64 %146
  %148 = load double, double* %147, align 8
  %149 = load i32, i32* %2, align 4
  %150 = sext i32 %149 to i64
  %151 = getelementptr inbounds [100 x double], [100 x double]* %9, i64 0, i64 %150
  %152 = load double, double* %151, align 8
  %153 = call i32 (i8*, ...) @printf(i8* getelementptr inbounds ([19 x i8], [19 x i8]* @.str.3, i64 0, i64 0), double %148, double %152)
  br label %154

154:                                              ; preds = %144, %138
  br label %287

155:                                              ; preds = %34
  %156 = load i32, i32* %2, align 4
  %157 = sext i32 %156 to i64
  %158 = getelementptr inbounds [100 x double], [100 x double]* %5, i64 0, i64 %157
  %159 = load double, double* %158, align 8
  %160 = fcmp oeq double %159, 0.000000e+00
  br i1 %160, label %161, label %223

161:                                              ; preds = %155
  %162 = load i32, i32* %2, align 4
  %163 = sext i32 %162 to i64
  %164 = getelementptr inbounds [100 x double], [100 x double]* %5, i64 0, i64 %163
  %165 = load double, double* %164, align 8
  %166 = fneg double %165
  %167 = load i32, i32* %2, align 4
  %168 = sext i32 %167 to i64
  %169 = getelementptr inbounds [100 x double], [100 x double]* %5, i64 0, i64 %168
  %170 = load double, double* %169, align 8
  %171 = fmul double %166, %170
  %172 = load i32, i32* %2, align 4
  %173 = sext i32 %172 to i64
  %174 = getelementptr inbounds [100 x double], [100 x double]* %4, i64 0, i64 %173
  %175 = load double, double* %174, align 8
  %176 = fmul double 4.000000e+00, %175
  %177 = load i32, i32* %2, align 4
  %178 = sext i32 %177 to i64
  %179 = getelementptr inbounds [100 x double], [100 x double]* %6, i64 0, i64 %178
  %180 = load double, double* %179, align 8
  %181 = fmul double %176, %180
  %182 = fadd double %171, %181
  %183 = call double @sqrt(double %182) #3
  %184 = load i32, i32* %2, align 4
  %185 = sext i32 %184 to i64
  %186 = getelementptr inbounds [100 x double], [100 x double]* %4, i64 0, i64 %185
  %187 = load double, double* %186, align 8
  %188 = fmul double 2.000000e+00, %187
  %189 = fdiv double %183, %188
  %190 = load i32, i32* %2, align 4
  %191 = sext i32 %190 to i64
  %192 = getelementptr inbounds [100 x double], [100 x double]* %7, i64 0, i64 %191
  store double %189, double* %192, align 8
  %193 = load i32, i32* %2, align 4
  %194 = sext i32 %193 to i64
  %195 = getelementptr inbounds [100 x double], [100 x double]* %5, i64 0, i64 %194
  %196 = load double, double* %195, align 8
  %197 = load i32, i32* %2, align 4
  %198 = sext i32 %197 to i64
  %199 = getelementptr inbounds [100 x double], [100 x double]* %4, i64 0, i64 %198
  %200 = load double, double* %199, align 8
  %201 = fmul double 2.000000e+00, %200
  %202 = fdiv double %196, %201
  %203 = load i32, i32* %2, align 4
  %204 = sext i32 %203 to i64
  %205 = getelementptr inbounds [100 x double], [100 x double]* %8, i64 0, i64 %204
  store double %202, double* %205, align 8
  %206 = load i32, i32* %2, align 4
  %207 = sext i32 %206 to i64
  %208 = getelementptr inbounds [100 x double], [100 x double]* %8, i64 0, i64 %207
  %209 = load double, double* %208, align 8
  %210 = load i32, i32* %2, align 4
  %211 = sext i32 %210 to i64
  %212 = getelementptr inbounds [100 x double], [100 x double]* %7, i64 0, i64 %211
  %213 = load double, double* %212, align 8
  %214 = load i32, i32* %2, align 4
  %215 = sext i32 %214 to i64
  %216 = getelementptr inbounds [100 x double], [100 x double]* %8, i64 0, i64 %215
  %217 = load double, double* %216, align 8
  %218 = load i32, i32* %2, align 4
  %219 = sext i32 %218 to i64
  %220 = getelementptr inbounds [100 x double], [100 x double]* %7, i64 0, i64 %219
  %221 = load double, double* %220, align 8
  %222 = call i32 (i8*, ...) @printf(i8* getelementptr inbounds ([33 x i8], [33 x i8]* @.str.4, i64 0, i64 0), double %209, double %213, double %217, double %221)
  br label %286

223:                                              ; preds = %155
  %224 = load i32, i32* %2, align 4
  %225 = sext i32 %224 to i64
  %226 = getelementptr inbounds [100 x double], [100 x double]* %5, i64 0, i64 %225
  %227 = load double, double* %226, align 8
  %228 = fneg double %227
  %229 = load i32, i32* %2, align 4
  %230 = sext i32 %229 to i64
  %231 = getelementptr inbounds [100 x double], [100 x double]* %5, i64 0, i64 %230
  %232 = load double, double* %231, align 8
  %233 = fmul double %228, %232
  %234 = load i32, i32* %2, align 4
  %235 = sext i32 %234 to i64
  %236 = getelementptr inbounds [100 x double], [100 x double]* %4, i64 0, i64 %235
  %237 = load double, double* %236, align 8
  %238 = fmul double 4.000000e+00, %237
  %239 = load i32, i32* %2, align 4
  %240 = sext i32 %239 to i64
  %241 = getelementptr inbounds [100 x double], [100 x double]* %6, i64 0, i64 %240
  %242 = load double, double* %241, align 8
  %243 = fmul double %238, %242
  %244 = fadd double %233, %243
  %245 = call double @sqrt(double %244) #3
  %246 = load i32, i32* %2, align 4
  %247 = sext i32 %246 to i64
  %248 = getelementptr inbounds [100 x double], [100 x double]* %4, i64 0, i64 %247
  %249 = load double, double* %248, align 8
  %250 = fmul double 2.000000e+00, %249
  %251 = fdiv double %245, %250
  %252 = load i32, i32* %2, align 4
  %253 = sext i32 %252 to i64
  %254 = getelementptr inbounds [100 x double], [100 x double]* %7, i64 0, i64 %253
  store double %251, double* %254, align 8
  %255 = load i32, i32* %2, align 4
  %256 = sext i32 %255 to i64
  %257 = getelementptr inbounds [100 x double], [100 x double]* %5, i64 0, i64 %256
  %258 = load double, double* %257, align 8
  %259 = fneg double %258
  %260 = load i32, i32* %2, align 4
  %261 = sext i32 %260 to i64
  %262 = getelementptr inbounds [100 x double], [100 x double]* %4, i64 0, i64 %261
  %263 = load double, double* %262, align 8
  %264 = fmul double 2.000000e+00, %263
  %265 = fdiv double %259, %264
  %266 = load i32, i32* %2, align 4
  %267 = sext i32 %266 to i64
  %268 = getelementptr inbounds [100 x double], [100 x double]* %8, i64 0, i64 %267
  store double %265, double* %268, align 8
  %269 = load i32, i32* %2, align 4
  %270 = sext i32 %269 to i64
  %271 = getelementptr inbounds [100 x double], [100 x double]* %8, i64 0, i64 %270
  %272 = load double, double* %271, align 8
  %273 = load i32, i32* %2, align 4
  %274 = sext i32 %273 to i64
  %275 = getelementptr inbounds [100 x double], [100 x double]* %7, i64 0, i64 %274
  %276 = load double, double* %275, align 8
  %277 = load i32, i32* %2, align 4
  %278 = sext i32 %277 to i64
  %279 = getelementptr inbounds [100 x double], [100 x double]* %8, i64 0, i64 %278
  %280 = load double, double* %279, align 8
  %281 = load i32, i32* %2, align 4
  %282 = sext i32 %281 to i64
  %283 = getelementptr inbounds [100 x double], [100 x double]* %7, i64 0, i64 %282
  %284 = load double, double* %283, align 8
  %285 = call i32 (i8*, ...) @printf(i8* getelementptr inbounds ([33 x i8], [33 x i8]* @.str.4, i64 0, i64 0), double %272, double %276, double %280, double %284)
  br label %286

286:                                              ; preds = %223, %161
  br label %287

287:                                              ; preds = %286, %154
  %288 = load i32, i32* %2, align 4
  %289 = add nsw i32 %288, 1
  store i32 %289, i32* %2, align 4
  br label %30

290:                                              ; preds = %30
  %291 = load i32, i32* %1, align 4
  ret i32 %291
}

declare dso_local i32 @__isoc99_scanf(i8*, ...) #1

; Function Attrs: nounwind
declare dso_local double @sqrt(double) #2

declare dso_local i32 @printf(i8*, ...) #1


!llvm.module.flags = !{!0}
!llvm.ident = !{!1}

!0 = !{i32 1, !"wchar_size", i32 4}
!1 = !{!"clang version 10.0.0-4ubuntu1 "}
